; Function Attrs: nounwind sspstrong uwtable
define internal i64 @ossl_ts_resp_get_token_info(i64 noundef %0) #0 {
  %2 = tail call ptr @rb_check_typeddata(i64 noundef %0, ptr noundef nonnull @ossl_ts_resp_type) #7
  %.not = icmp eq ptr %2, null
  br i1 %.not, label %3, label %5

3:                                                ; preds = %1
  %4 = load i64, ptr @rb_eRuntimeError, align 8, !tbaa !6
  tail call void (i64, ptr, ...) @ossl_raise(i64 noundef %4, ptr noundef nonnull @.str.49) #8
  unreachable

5:                                                ; preds = %1
  %6 = tail call ptr @TS_RESP_get_tst_info(ptr noundef nonnull %2) #7
  %.not11 = icmp eq ptr %6, null
  br i1 %.not11, label %16, label %7

7:                                                ; preds = %5
  %8 = load i64, ptr @cTimestampTokenInfo, align 8, !tbaa !6
  %9 = tail call i64 @rb_data_typed_object_wrap(i64 noundef %8, ptr noundef null, ptr noundef nonnull @ossl_ts_token_info_type) #7
  %10 = tail call ptr @TS_TST_INFO_dup(ptr noundef nonnull %6) #7
  %.not12 = icmp eq ptr %10, null
  br i1 %.not12, label %11, label %13

11:                                               ; preds = %7
  %12 = load i64, ptr @eTimestampError, align 8, !tbaa !6
  tail call void (i64, ptr, ...) @ossl_raise(i64 noundef %12, ptr noundef null) #8
  unreachable

13:                                               ; preds = %7
  %14 = inttoptr i64 %9 to ptr
  %15 = getelementptr inbounds nuw i8, ptr %14, i64 32
  store ptr %10, ptr %15, align 8, !tbaa !10
  br label %16

16:                                               ; preds = %5, %13
  %.0 = phi i64 [ %9, %13 ], [ 4, %5 ]
  ret i64 %.0
}